; Function Attrs: nounwind uwtable
define ptr @l_Lean_logWarning___at_Lean_Elab_Tactic_BVDecide_Frontend_Normalize_intToBitVecPass_replaceSize___spec__1(ptr noundef %0, ptr readnone captures(none) %1, ptr noundef %2, ptr noundef %3, ptr noundef %4, ptr noundef %5, ptr noundef %6) local_unnamed_addr #1 {
  %8 = getelementptr inbounds nuw i8, ptr %4, i64 24
  %9 = load ptr, ptr %8, align 8, !tbaa !9
  %10 = ptrtoint ptr %9 to i64
  %11 = and i64 %10, 1
  %.not = icmp eq i64 %11, 0
  br i1 %.not, label %12, label %lean_inc.exit

12:                                               ; preds = %7
  %.val.i = load i32, ptr %9, align 4, !tbaa !4
  %13 = icmp sgt i32 %.val.i, 0
  br i1 %13, label %14, label %16, !prof !11

14:                                               ; preds = %12
  %15 = add nuw i32 %.val.i, 1
  store i32 %15, ptr %9, align 4, !tbaa !4
  br label %20

16:                                               ; preds = %12
  %.not.i24 = icmp eq i32 %.val.i, 0
  br i1 %.not.i24, label %20, label %17

17:                                               ; preds = %16
  tail call void @lean_inc_ref_cold(ptr noundef nonnull %9) #4
  br label %20

lean_inc.exit:                                    ; preds = %7
  %18 = load ptr, ptr @l_Lean_logAt___at_Lean_Elab_Tactic_BVDecide_Frontend_Normalize_intToBitVecPass_replaceSize___spec__3___closed__2, align 8, !tbaa !9
  %19 = tail call zeroext i8 @l_Lean_Option_get___at___private_Lean_Util_Profile_0__Lean_get__profiler___spec__1(ptr noundef %9, ptr noundef %18) #4
  br label %lean_dec.exit

20:                                               ; preds = %17, %16, %14
  %21 = load ptr, ptr @l_Lean_logAt___at_Lean_Elab_Tactic_BVDecide_Frontend_Normalize_intToBitVecPass_replaceSize___spec__3___closed__2, align 8, !tbaa !9
  %22 = tail call zeroext i8 @l_Lean_Option_get___at___private_Lean_Util_Profile_0__Lean_get__profiler___spec__1(ptr noundef nonnull %9, ptr noundef %21) #4
  %23 = load i32, ptr %9, align 4, !tbaa !4
  %24 = icmp sgt i32 %23, 1
  br i1 %24, label %25, label %27, !prof !11

25:                                               ; preds = %20
  %26 = add nsw i32 %23, -1
  store i32 %26, ptr %9, align 4, !tbaa !4
  br label %lean_dec.exit

27:                                               ; preds = %20
  %.not.i = icmp eq i32 %23, 0
  br i1 %.not.i, label %lean_dec.exit, label %28

28:                                               ; preds = %27
  tail call void @lean_dec_ref_cold(ptr noundef nonnull %9) #4
  br label %lean_dec.exit

lean_dec.exit:                                    ; preds = %28, %27, %25, %lean_inc.exit
  %29 = phi i8 [ %19, %lean_inc.exit ], [ %22, %25 ], [ %22, %27 ], [ %22, %28 ]
  %30 = icmp eq i8 %29, 0
  %. = select i1 %30, i8 1, i8 2
  %31 = tail call ptr @l_Lean_log___at_Lean_Elab_Tactic_BVDecide_Frontend_Normalize_intToBitVecPass_replaceSize___spec__2(ptr noundef %0, i8 noundef zeroext %., ptr poison, ptr noundef %2, ptr noundef %3, ptr noundef nonnull %4, ptr noundef %5, ptr noundef %6)
  ret ptr %31
}